target datalayout = "e-m:e-p270:32:32-p271:32:32-p272:64:64-i64:64-i128:128-f80:128-n8:16:32:64-S128"
target triple = "x86_64-pc-linux-gnu"

%"class.llvm::SmallVectorBase" = type { ptr, i32, i32 }
%"class.llvm::MemoryDependenceResults" = type { %"class.llvm::DenseMap", %"class.llvm::DenseMap.0", %"class.llvm::DenseMap.3", %"class.llvm::DenseMap.6", %"class.llvm::DenseMap.9", %"class.llvm::DenseMap.12", %"class.llvm::DenseMap.15", %"class.llvm::DenseMap.15", ptr, ptr, ptr, ptr, %"class.llvm::PredIteratorCache", %"class.llvm::EarliestEscapeInfo", i32, [4 x i8], %"class.llvm::DenseMap.38" }
%"class.llvm::DenseMap" = type <{ ptr, i32, i32, i32, [4 x i8] }>
%"class.llvm::DenseMap.0" = type <{ ptr, i32, i32, i32, [4 x i8] }>
%"class.llvm::DenseMap.3" = type <{ ptr, i32, i32, i32, [4 x i8] }>
%"class.llvm::DenseMap.6" = type <{ ptr, i32, i32, i32, [4 x i8] }>
%"class.llvm::DenseMap.9" = type <{ ptr, i32, i32, i32, [4 x i8] }>
%"class.llvm::DenseMap.12" = type <{ ptr, i32, i32, i32, [4 x i8] }>
%"class.llvm::DenseMap.15" = type <{ ptr, i32, i32, i32, [4 x i8] }>
%"class.llvm::PredIteratorCache" = type { %"class.llvm::DenseMap.18", %"class.llvm::BumpPtrAllocatorImpl" }
%"class.llvm::DenseMap.18" = type <{ ptr, i32, i32, i32, [4 x i8] }>
%"class.llvm::BumpPtrAllocatorImpl" = type { ptr, ptr, %"class.llvm::SmallVector.22", %"class.llvm::SmallVector.27", i64, i64 }
%"class.llvm::SmallVector.22" = type { %"class.llvm::SmallVectorImpl.23", %"struct.llvm::SmallVectorStorage.26" }
%"class.llvm::SmallVectorImpl.23" = type { %"class.llvm::SmallVectorTemplateBase.24" }
%"class.llvm::SmallVectorTemplateBase.24" = type { %"class.llvm::SmallVectorTemplateCommon.25" }
%"class.llvm::SmallVectorTemplateCommon.25" = type { %"class.llvm::SmallVectorBase" }
%"struct.llvm::SmallVectorStorage.26" = type { [32 x i8] }
%"class.llvm::SmallVector.27" = type { %"class.llvm::SmallVectorImpl.28" }
%"class.llvm::SmallVectorImpl.28" = type { %"class.llvm::SmallVectorTemplateBase.29" }
%"class.llvm::SmallVectorTemplateBase.29" = type { %"class.llvm::SmallVectorTemplateCommon.30" }
%"class.llvm::SmallVectorTemplateCommon.30" = type { %"class.llvm::SmallVectorBase" }
%"class.llvm::EarliestEscapeInfo" = type { %"struct.llvm::CaptureInfo", ptr, ptr, %"class.llvm::DenseMap.32", %"class.llvm::DenseMap.35" }
%"struct.llvm::CaptureInfo" = type { ptr }
%"class.llvm::DenseMap.32" = type <{ ptr, i32, i32, i32, [4 x i8] }>
%"class.llvm::DenseMap.35" = type <{ ptr, i32, i32, i32, [4 x i8] }>
%"class.llvm::DenseMap.38" = type <{ ptr, i32, i32, i32, [4 x i8] }>
%"class.llvm::MemoryDependenceWrapperPass" = type { %"class.llvm::FunctionPass.base", [4 x i8], %"class.std::optional.262" }
%"class.llvm::FunctionPass.base" = type { %"class.llvm::Pass.base" }
%"class.llvm::Pass.base" = type <{ ptr, ptr, ptr, i32 }>
%"class.std::optional.262" = type { %"struct.std::_Optional_base.263" }
%"struct.std::_Optional_base.263" = type { %"struct.std::_Optional_payload.265" }
%"struct.std::_Optional_payload.265" = type { %"struct.std::_Optional_payload.base.269", [7 x i8] }
%"struct.std::_Optional_payload.base.269" = type { %"struct.std::_Optional_payload_base.base.268" }
%"struct.std::_Optional_payload_base.base.268" = type <{ %"union.std::_Optional_payload_base<llvm::MemoryDependenceResults>::_Storage", i8 }>
%"union.std::_Optional_payload_base<llvm::MemoryDependenceResults>::_Storage" = type { %"class.llvm::MemoryDependenceResults" }
%"struct.std::_Optional_payload_base.267" = type <{ %"union.std::_Optional_payload_base<llvm::MemoryDependenceResults>::_Storage", i8, [7 x i8] }>

; Function Attrs: mustprogress nounwind uwtable
define linkonce_odr hidden void @_ZNSt22_Optional_payload_baseIN4llvm23MemoryDependenceResultsEE10_M_destroyEv(ptr noundef nonnull align 8 dereferenceable(449) %0) #1 comdat align 2 {
  %2 = alloca ptr, align 8
  store ptr %0, ptr %2, align 8
  %3 = load ptr, ptr %2, align 8
  %4 = getelementptr inbounds nuw %"struct.std::_Optional_payload_base.267", ptr %3, i32 0, i32 1
  store i8 0, ptr %4, align 8
  %5 = getelementptr inbounds nuw %"struct.std::_Optional_payload_base.267", ptr %3, i32 0, i32 0
  call void @_ZN4llvm23MemoryDependenceResultsD2Ev(ptr noundef nonnull align 8 dereferenceable(448) %5) #2
  ret void
}

; Function Attrs: mustprogress nounwind uwtable
define linkonce_odr hidden void @_ZNSt22_Optional_payload_baseIN4llvm23MemoryDependenceResultsEE8_M_resetEv(ptr noundef nonnull align 8 dereferenceable(449) %0) #1 comdat align 2 {
  %2 = alloca ptr, align 8
  store ptr %0, ptr %2, align 8
  %3 = load ptr, ptr %2, align 8
  %4 = getelementptr inbounds nuw %"struct.std::_Optional_payload_base.267", ptr %3, i32 0, i32 1
  %5 = load i8, ptr %4, align 8
  %6 = trunc i8 %5 to i1
  br i1 %6, label %7, label %8

7:                                                ; preds = %1
  call void @_ZNSt22_Optional_payload_baseIN4llvm23MemoryDependenceResultsEE10_M_destroyEv(ptr noundef nonnull align 8 dereferenceable(449) %3) #2
  br label %8

8:                                                ; preds = %7, %1
  ret void
}

; Function Attrs: mustprogress nounwind uwtable
define linkonce_odr hidden void @_ZNSt19_Optional_base_implIN4llvm23MemoryDependenceResultsESt14_Optional_baseIS1_Lb0ELb0EEE8_M_resetEv(ptr noundef nonnull align 1 dereferenceable(1) %0) #1 comdat align 2 {
  %2 = alloca ptr, align 8
  store ptr %0, ptr %2, align 8
  %3 = load ptr, ptr %2, align 8
  %4 = getelementptr inbounds nuw %"struct.std::_Optional_base.263", ptr %3, i32 0, i32 0
  call void @_ZNSt22_Optional_payload_baseIN4llvm23MemoryDependenceResultsEE8_M_resetEv(ptr noundef nonnull align 8 dereferenceable(449) %4) #2
  ret void
}

; Function Attrs: mustprogress nounwind uwtable
define linkonce_odr hidden void @_ZNSt8optionalIN4llvm23MemoryDependenceResultsEE5resetEv(ptr noundef nonnull align 8 dereferenceable(456) %0) #1 comdat align 2 {
  %2 = alloca ptr, align 8
  store ptr %0, ptr %2, align 8
  %3 = load ptr, ptr %2, align 8
  call void @_ZNSt19_Optional_base_implIN4llvm23MemoryDependenceResultsESt14_Optional_baseIS1_Lb0ELb0EEE8_M_resetEv(ptr noundef nonnull align 1 dereferenceable(1) %3) #2
  ret void
}

; Function Attrs: mustprogress nounwind uwtable
define dso_local void @_ZN4llvm27MemoryDependenceWrapperPass13releaseMemoryEv(ptr noundef nonnull align 8 dereferenceable(488) %0) unnamed_addr #1 align 2 {
  %2 = alloca ptr, align 8
  store ptr %0, ptr %2, align 8
  %3 = load ptr, ptr %2, align 8
  %4 = getelementptr inbounds nuw %"class.llvm::MemoryDependenceWrapperPass", ptr %3, i32 0, i32 2
  call void @_ZNSt8optionalIN4llvm23MemoryDependenceResultsEE5resetEv(ptr noundef nonnull align 8 dereferenceable(456) %4) #2
  ret void
}