; Function Attrs: mustprogress nounwind uwtable
define dso_local void @_ZN4llvm27MemoryDependenceWrapperPass13releaseMemoryEv(ptr noundef nonnull align 8 dereferenceable(488) %0) unnamed_addr #0 align 2 {
  %2 = getelementptr inbounds i8, ptr %0, i64 480
  %3 = load i8, ptr %2, align 8
  %4 = trunc i8 %3 to i1
  br i1 %4, label %5, label %_ZNSt8optionalIN4llvm23MemoryDependenceResultsEE5resetEv.exit

5:                                                ; preds = %1
  %6 = getelementptr inbounds nuw i8, ptr %0, i64 32
  store i8 0, ptr %2, align 8
  tail call void @_ZN4llvm23MemoryDependenceResultsD2Ev(ptr noundef nonnull align 8 dereferenceable(448) %6) #20
  br label %_ZNSt8optionalIN4llvm23MemoryDependenceResultsEE5resetEv.exit

_ZNSt8optionalIN4llvm23MemoryDependenceResultsEE5resetEv.exit: ; preds = %1, %5
  ret void
}